; Function Attrs: mustprogress uwtable
define hidden void @_Z21model_converter2modelR11ast_managerP15model_converterR3refI5modelE(ptr noundef nonnull align 8 dereferenceable(976) %mng, ptr noundef %mc, ptr noundef nonnull align 8 dereferenceable(8) %m) local_unnamed_addr #3 {
entry:
  %tobool.not = icmp eq ptr %mc, null
  br i1 %tobool.not, label %if.end, label %if.end.i

if.end.i:                                         ; preds = %entry
  %call = tail call noalias noundef ptr @_ZN6memory8allocateEm(i64 noundef 160)
  tail call void @_ZN5modelC1ER11ast_manager(ptr noundef nonnull align 8 dereferenceable(160) %call, ptr noundef nonnull align 8 dereferenceable(976) %mng)
  %m_ref_count.i.i = getelementptr inbounds i8, ptr %call, i64 16
  %0 = load i32, ptr %m_ref_count.i.i, align 8
  %inc.i.i = add i32 %0, 1
  store i32 %inc.i.i, ptr %m_ref_count.i.i, align 8
  %1 = load ptr, ptr %m, align 8
  %tobool.not.i.i = icmp eq ptr %1, null
  br i1 %tobool.not.i.i, label %_ZN3refI5modelEaSEPS0_.exit, label %if.then.i.i

if.then.i.i:                                      ; preds = %if.end.i
  %m_ref_count.i.i.i = getelementptr inbounds i8, ptr %1, i64 16
  %2 = load i32, ptr %m_ref_count.i.i.i, align 8
  %dec.i.i.i = add i32 %2, -1
  store i32 %dec.i.i.i, ptr %m_ref_count.i.i.i, align 8
  %cmp.i.i.i = icmp eq i32 %dec.i.i.i, 0
  br i1 %cmp.i.i.i, label %if.then.i.i.i, label %_ZN3refI5modelEaSEPS0_.exit

if.then.i.i.i:                                    ; preds = %if.then.i.i
  %vtable.i.i.i.i = load ptr, ptr %1, align 8
  %3 = load ptr, ptr %vtable.i.i.i.i, align 8
  tail call void %3(ptr noundef nonnull align 8 dereferenceable(96) %1) #16
  tail call void @_ZN6memory10deallocateEPv(ptr noundef nonnull %1)
  br label %_ZN3refI5modelEaSEPS0_.exit

_ZN3refI5modelEaSEPS0_.exit:                      ; preds = %if.end.i, %if.then.i.i, %if.then.i.i.i
  store ptr %call, ptr %m, align 8
  %vtable = load ptr, ptr %mc, align 8
  %vfn = getelementptr inbounds i8, ptr %vtable, i64 32
  %4 = load ptr, ptr %vfn, align 8
  tail call void %4(ptr noundef nonnull align 8 dereferenceable(25) %mc, ptr noundef nonnull align 8 dereferenceable(8) %m)
  br label %if.end

if.end:                                           ; preds = %_ZN3refI5modelEaSEPS0_.exit, %entry
  ret void
}